; ModuleID = '14/289.c'
source_filename = "14/289.c"
target datalayout = "e-m:e-p270:32:32-p271:32:32-p272:64:64-i64:64-f80:128-n8:16:32:64-S128"
target triple = "x86_64-pc-linux-gnu"

%struct.student = type { i32, i32, i32, i32 }

@.str = private unnamed_addr constant [3 x i8] c"%d\00", align 1
@.str.1 = private unnamed_addr constant [9 x i8] c"%d %d %d\00", align 1
@.str.2 = private unnamed_addr constant [7 x i8] c"%d %d\0A\00", align 1

; Function Attrs: noinline nounwind uwtable
define dso_local i32 @main() #0 {
  %1 = alloca i32, align 4
  %2 = alloca i32, align 4
  %3 = alloca i32, align 4
  %4 = alloca i32, align 4
  %5 = alloca [100001 x i32], align 16
  %6 = alloca [100001 x %struct.student], align 16
  store i32 0, i32* %1, align 4
  store i32 1, i32* %3, align 4
  %7 = call i32 (i8*, ...) @__isoc99_scanf(i8* getelementptr inbounds ([3 x i8], [3 x i8]* @.str, i64 0, i64 0), i32* %2)
  store i32 1, i32* %3, align 4
  br label %8

8:                                                ; preds = %85, %0
  %9 = load i32, i32* %3, align 4
  %10 = load i32, i32* %2, align 4
  %11 = icmp sle i32 %9, %10
  br i1 %11, label %12, label %88

12:                                               ; preds = %8
  %13 = load i32, i32* %3, align 4
  %14 = sext i32 %13 to i64
  %15 = getelementptr inbounds [100001 x %struct.student], [100001 x %struct.student]* %6, i64 0, i64 %14
  %16 = getelementptr inbounds %struct.student, %struct.student* %15, i32 0, i32 0
  %17 = load i32, i32* %3, align 4
  %18 = sext i32 %17 to i64
  %19 = getelementptr inbounds [100001 x %struct.student], [100001 x %struct.student]* %6, i64 0, i64 %18
  %20 = getelementptr inbounds %struct.student, %struct.student* %19, i32 0, i32 1
  %21 = load i32, i32* %3, align 4
  %22 = sext i32 %21 to i64
  %23 = getelementptr inbounds [100001 x %struct.student], [100001 x %struct.student]* %6, i64 0, i64 %22
  %24 = getelementptr inbounds %struct.student, %struct.student* %23, i32 0, i32 2
  %25 = call i32 (i8*, ...) @__isoc99_scanf(i8* getelementptr inbounds ([9 x i8], [9 x i8]* @.str.1, i64 0, i64 0), i32* %16, i32* %20, i32* %24)
  %26 = load i32, i32* %3, align 4
  %27 = sext i32 %26 to i64
  %28 = getelementptr inbounds [100001 x %struct.student], [100001 x %struct.student]* %6, i64 0, i64 %27
  %29 = getelementptr inbounds %struct.student, %struct.student* %28, i32 0, i32 1
  %30 = load i32, i32* %29, align 4
  %31 = load i32, i32* %3, align 4
  %32 = sext i32 %31 to i64
  %33 = getelementptr inbounds [100001 x %struct.student], [100001 x %struct.student]* %6, i64 0, i64 %32
  %34 = getelementptr inbounds %struct.student, %struct.student* %33, i32 0, i32 2
  %35 = load i32, i32* %34, align 8
  %36 = add nsw i32 %30, %35
  %37 = load i32, i32* %3, align 4
  %38 = sext i32 %37 to i64
  %39 = getelementptr inbounds [100001 x %struct.student], [100001 x %struct.student]* %6, i64 0, i64 %38
  %40 = getelementptr inbounds %struct.student, %struct.student* %39, i32 0, i32 3
  store i32 %36, i32* %40, align 4
  %41 = load i32, i32* %3, align 4
  %42 = icmp slt i32 %41, 4
  br i1 %42, label %43, label %45

43:                                               ; preds = %12
  %44 = load i32, i32* %3, align 4
  store i32 %44, i32* %4, align 4
  br label %46

45:                                               ; preds = %12
  store i32 4, i32* %4, align 4
  br label %46

46:                                               ; preds = %45, %43
  br label %47

47:                                               ; preds = %77, %46
  %48 = load i32, i32* %4, align 4
  %49 = icmp sgt i32 %48, 1
  br i1 %49, label %50, label %66

50:                                               ; preds = %47
  %51 = load i32, i32* %3, align 4
  %52 = sext i32 %51 to i64
  %53 = getelementptr inbounds [100001 x %struct.student], [100001 x %struct.student]* %6, i64 0, i64 %52
  %54 = getelementptr inbounds %struct.student, %struct.student* %53, i32 0, i32 3
  %55 = load i32, i32* %54, align 4
  %56 = load i32, i32* %4, align 4
  %57 = sub nsw i32 %56, 1
  %58 = sext i32 %57 to i64
  %59 = getelementptr inbounds [100001 x i32], [100001 x i32]* %5, i64 0, i64 %58
  %60 = load i32, i32* %59, align 4
  %61 = sext i32 %60 to i64
  %62 = getelementptr inbounds [100001 x %struct.student], [100001 x %struct.student]* %6, i64 0, i64 %61
  %63 = getelementptr inbounds %struct.student, %struct.student* %62, i32 0, i32 3
  %64 = load i32, i32* %63, align 4
  %65 = icmp sgt i32 %55, %64
  br label %66

66:                                               ; preds = %50, %47
  %67 = phi i1 [ false, %47 ], [ %65, %50 ]
  br i1 %67, label %68, label %80

68:                                               ; preds = %66
  %69 = load i32, i32* %4, align 4
  %70 = sub nsw i32 %69, 1
  %71 = sext i32 %70 to i64
  %72 = getelementptr inbounds [100001 x i32], [100001 x i32]* %5, i64 0, i64 %71
  %73 = load i32, i32* %72, align 4
  %74 = load i32, i32* %4, align 4
  %75 = sext i32 %74 to i64
  %76 = getelementptr inbounds [100001 x i32], [100001 x i32]* %5, i64 0, i64 %75
  store i32 %73, i32* %76, align 4
  br label %77

77:                                               ; preds = %68
  %78 = load i32, i32* %4, align 4
  %79 = add nsw i32 %78, -1
  store i32 %79, i32* %4, align 4
  br label %47

80:                                               ; preds = %66
  %81 = load i32, i32* %3, align 4
  %82 = load i32, i32* %4, align 4
  %83 = sext i32 %82 to i64
  %84 = getelementptr inbounds [100001 x i32], [100001 x i32]* %5, i64 0, i64 %83
  store i32 %81, i32* %84, align 4
  br label %85

85:                                               ; preds = %80
  %86 = load i32, i32* %3, align 4
  %87 = add nsw i32 %86, 1
  store i32 %87, i32* %3, align 4
  br label %8

88:                                               ; preds = %8
  store i32 1, i32* %3, align 4
  br label %89

89:                                               ; preds = %110, %88
  %90 = load i32, i32* %3, align 4
  %91 = icmp sle i32 %90, 3
  br i1 %91, label %92, label %113

92:                                               ; preds = %89
  %93 = load i32, i32* %3, align 4
  %94 = sext i32 %93 to i64
  %95 = getelementptr inbounds [100001 x i32], [100001 x i32]* %5, i64 0, i64 %94
  %96 = load i32, i32* %95, align 4
  %97 = sext i32 %96 to i64
  %98 = getelementptr inbounds [100001 x %struct.student], [100001 x %struct.student]* %6, i64 0, i64 %97
  %99 = getelementptr inbounds %struct.student, %struct.student* %98, i32 0, i32 0
  %100 = load i32, i32* %99, align 16
  %101 = load i32, i32* %3, align 4
  %102 = sext i32 %101 to i64
  %103 = getelementptr inbounds [100001 x i32], [100001 x i32]* %5, i64 0, i64 %102
  %104 = load i32, i32* %103, align 4
  %105 = sext i32 %104 to i64
  %106 = getelementptr inbounds [100001 x %struct.student], [100001 x %struct.student]* %6, i64 0, i64 %105
  %107 = getelementptr inbounds %struct.student, %struct.student* %106, i32 0, i32 3
  %108 = load i32, i32* %107, align 4
  %109 = call i32 (i8*, ...) @printf(i8* getelementptr inbounds ([7 x i8], [7 x i8]* @.str.2, i64 0, i64 0), i32 %100, i32 %108)
  br label %110

110:                                              ; preds = %92
  %111 = load i32, i32* %3, align 4
  %112 = add nsw i32 %111, 1
  store i32 %112, i32* %3, align 4
  br label %89

113:                                              ; preds = %89
  %114 = call i32 @getchar()
  %115 = call i32 @getchar()
  %116 = call i32 (i8*, ...) @__isoc99_scanf(i8* getelementptr inbounds ([3 x i8], [3 x i8]* @.str, i64 0, i64 0), i32* %2)
  ret i32 0
}

declare dso_local i32 @__isoc99_scanf(i8*, ...) #1

declare dso_local i32 @printf(i8*, ...) #1

declare dso_local i32 @getchar() #1


!llvm.module.flags = !{!0}
!llvm.ident = !{!1}

!0 = !{i32 1, !"wchar_size", i32 4}
!1 = !{!"clang version 10.0.0-4ubuntu1 "}
